; Function Attrs: mustprogress uwtable
define void @_ZNK8QuantLib17StochasticProcess6evolveEdRKNS_5ArrayEdS3_(ptr dead_on_unwind noalias writable sret(%"class.QuantLib::Array") align 8 %agg.result, ptr noundef nonnull align 8 dereferenceable(128) %this, double noundef %t0, ptr noundef nonnull align 8 dereferenceable(16) %x0, double noundef %dt, ptr noundef nonnull align 8 dereferenceable(16) %dw) unnamed_addr #7 align 2 personality ptr @__gxx_personality_v0 {
entry:
  %ref.tmp = alloca %"class.QuantLib::Array", align 8
  %ref.tmp2 = alloca %"class.QuantLib::Array", align 8
  %ref.tmp3 = alloca %"class.QuantLib::Matrix", align 8
  call void @llvm.lifetime.start.p0(i64 16, ptr nonnull %ref.tmp) #27
  %vtable = load ptr, ptr %this, align 8, !tbaa !28
  %vfn = getelementptr inbounds i8, ptr %vtable, i64 72
  %0 = load ptr, ptr %vfn, align 8
  call void %0(ptr dead_on_unwind nonnull writable sret(%"class.QuantLib::Array") align 8 %ref.tmp, ptr noundef nonnull align 8 dereferenceable(128) %this, double noundef %t0, ptr noundef nonnull align 8 dereferenceable(16) %x0, double noundef %dt)
  call void @llvm.lifetime.start.p0(i64 16, ptr nonnull %ref.tmp2) #27
  call void @llvm.lifetime.start.p0(i64 24, ptr nonnull %ref.tmp3) #27
  %vtable4 = load ptr, ptr %this, align 8, !tbaa !28
  %vfn5 = getelementptr inbounds i8, ptr %vtable4, i64 80
  %1 = load ptr, ptr %vfn5, align 8
  invoke void %1(ptr dead_on_unwind nonnull writable sret(%"class.QuantLib::Matrix") align 8 %ref.tmp3, ptr noundef nonnull align 8 dereferenceable(128) %this, double noundef %t0, ptr noundef nonnull align 8 dereferenceable(16) %x0, double noundef %dt)
          to label %invoke.cont unwind label %lpad

invoke.cont:                                      ; preds = %entry
  invoke void @_ZN8QuantLibmlERKNS_6MatrixERKNS_5ArrayE(ptr dead_on_unwind nonnull writable sret(%"class.QuantLib::Array") align 8 %ref.tmp2, ptr noundef nonnull align 8 dereferenceable(24) %ref.tmp3, ptr noundef nonnull align 8 dereferenceable(16) %dw)
          to label %invoke.cont7 unwind label %lpad6

invoke.cont7:                                     ; preds = %invoke.cont
  %vtable8 = load ptr, ptr %this, align 8, !tbaa !28
  %vfn9 = getelementptr inbounds i8, ptr %vtable8, i64 104
  %2 = load ptr, ptr %vfn9, align 8
  invoke void %2(ptr dead_on_unwind writable sret(%"class.QuantLib::Array") align 8 %agg.result, ptr noundef nonnull align 8 dereferenceable(128) %this, ptr noundef nonnull align 8 dereferenceable(16) %ref.tmp, ptr noundef nonnull align 8 dereferenceable(16) %ref.tmp2)
          to label %invoke.cont11 unwind label %lpad10

invoke.cont11:                                    ; preds = %invoke.cont7
  %3 = load ptr, ptr %ref.tmp2, align 8, !tbaa !3
  %cmp.not.i.i = icmp eq ptr %3, null
  br i1 %cmp.not.i.i, label %_ZN8QuantLib5ArrayD2Ev.exit, label %_ZNKSt14default_deleteIA_dEclIdEENSt9enable_ifIXsr14is_convertibleIPA_T_PS0_EE5valueEvE4typeEPS4_.exit.i.i

_ZNKSt14default_deleteIA_dEclIdEENSt9enable_ifIXsr14is_convertibleIPA_T_PS0_EE5valueEvE4typeEPS4_.exit.i.i: ; preds = %invoke.cont11
  call void @_ZdaPv(ptr noundef nonnull %3) #29
  br label %_ZN8QuantLib5ArrayD2Ev.exit

_ZN8QuantLib5ArrayD2Ev.exit:                      ; preds = %invoke.cont11, %_ZNKSt14default_deleteIA_dEclIdEENSt9enable_ifIXsr14is_convertibleIPA_T_PS0_EE5valueEvE4typeEPS4_.exit.i.i
  store ptr null, ptr %ref.tmp2, align 8, !tbaa !3
  %4 = load ptr, ptr %ref.tmp3, align 8, !tbaa !3
  %cmp.not.i.i6 = icmp eq ptr %4, null
  br i1 %cmp.not.i.i6, label %_ZN8QuantLib6MatrixD2Ev.exit, label %_ZNKSt14default_deleteIA_dEclIdEENSt9enable_ifIXsr14is_convertibleIPA_T_PS0_EE5valueEvE4typeEPS4_.exit.i.i7

_ZNKSt14default_deleteIA_dEclIdEENSt9enable_ifIXsr14is_convertibleIPA_T_PS0_EE5valueEvE4typeEPS4_.exit.i.i7: ; preds = %_ZN8QuantLib5ArrayD2Ev.exit
  call void @_ZdaPv(ptr noundef nonnull %4) #29
  br label %_ZN8QuantLib6MatrixD2Ev.exit

_ZN8QuantLib6MatrixD2Ev.exit:                     ; preds = %_ZN8QuantLib5ArrayD2Ev.exit, %_ZNKSt14default_deleteIA_dEclIdEENSt9enable_ifIXsr14is_convertibleIPA_T_PS0_EE5valueEvE4typeEPS4_.exit.i.i7
  call void @llvm.lifetime.end.p0(i64 24, ptr nonnull %ref.tmp3) #27
  call void @llvm.lifetime.end.p0(i64 16, ptr nonnull %ref.tmp2) #27
  %5 = load ptr, ptr %ref.tmp, align 8, !tbaa !3
  %cmp.not.i.i8 = icmp eq ptr %5, null
  br i1 %cmp.not.i.i8, label %_ZN8QuantLib5ArrayD2Ev.exit10, label %_ZNKSt14default_deleteIA_dEclIdEENSt9enable_ifIXsr14is_convertibleIPA_T_PS0_EE5valueEvE4typeEPS4_.exit.i.i9

_ZNKSt14default_deleteIA_dEclIdEENSt9enable_ifIXsr14is_convertibleIPA_T_PS0_EE5valueEvE4typeEPS4_.exit.i.i9: ; preds = %_ZN8QuantLib6MatrixD2Ev.exit
  call void @_ZdaPv(ptr noundef nonnull %5) #29
  br label %_ZN8QuantLib5ArrayD2Ev.exit10

_ZN8QuantLib5ArrayD2Ev.exit10:                    ; preds = %_ZN8QuantLib6MatrixD2Ev.exit, %_ZNKSt14default_deleteIA_dEclIdEENSt9enable_ifIXsr14is_convertibleIPA_T_PS0_EE5valueEvE4typeEPS4_.exit.i.i9
  call void @llvm.lifetime.end.p0(i64 16, ptr nonnull %ref.tmp) #27
  ret void

lpad:                                             ; preds = %entry
  %6 = landingpad { ptr, i32 }
          cleanup
  br label %ehcleanup12

lpad6:                                            ; preds = %invoke.cont
  %7 = landingpad { ptr, i32 }
          cleanup
  br label %ehcleanup

lpad10:                                           ; preds = %invoke.cont7
  %8 = landingpad { ptr, i32 }
          cleanup
  %9 = load ptr, ptr %ref.tmp2, align 8, !tbaa !3
  %cmp.not.i.i11 = icmp eq ptr %9, null
  br i1 %cmp.not.i.i11, label %_ZN8QuantLib5ArrayD2Ev.exit13, label %_ZNKSt14default_deleteIA_dEclIdEENSt9enable_ifIXsr14is_convertibleIPA_T_PS0_EE5valueEvE4typeEPS4_.exit.i.i12

_ZNKSt14default_deleteIA_dEclIdEENSt9enable_ifIXsr14is_convertibleIPA_T_PS0_EE5valueEvE4typeEPS4_.exit.i.i12: ; preds = %lpad10
  call void @_ZdaPv(ptr noundef nonnull %9) #29
  br label %_ZN8QuantLib5ArrayD2Ev.exit13

_ZN8QuantLib5ArrayD2Ev.exit13:                    ; preds = %lpad10, %_ZNKSt14default_deleteIA_dEclIdEENSt9enable_ifIXsr14is_convertibleIPA_T_PS0_EE5valueEvE4typeEPS4_.exit.i.i12
  store ptr null, ptr %ref.tmp2, align 8, !tbaa !3
  br label %ehcleanup

ehcleanup:                                        ; preds = %_ZN8QuantLib5ArrayD2Ev.exit13, %lpad6
  %.pn = phi { ptr, i32 } [ %8, %_ZN8QuantLib5ArrayD2Ev.exit13 ], [ %7, %lpad6 ]
  %10 = load ptr, ptr %ref.tmp3, align 8, !tbaa !3
  %cmp.not.i.i14 = icmp eq ptr %10, null
  br i1 %cmp.not.i.i14, label %ehcleanup12, label %_ZNKSt14default_deleteIA_dEclIdEENSt9enable_ifIXsr14is_convertibleIPA_T_PS0_EE5valueEvE4typeEPS4_.exit.i.i15

_ZNKSt14default_deleteIA_dEclIdEENSt9enable_ifIXsr14is_convertibleIPA_T_PS0_EE5valueEvE4typeEPS4_.exit.i.i15: ; preds = %ehcleanup
  call void @_ZdaPv(ptr noundef nonnull %10) #29
  br label %ehcleanup12

ehcleanup12:                                      ; preds = %_ZNKSt14default_deleteIA_dEclIdEENSt9enable_ifIXsr14is_convertibleIPA_T_PS0_EE5valueEvE4typeEPS4_.exit.i.i15, %ehcleanup, %lpad
  %.pn.pn = phi { ptr, i32 } [ %6, %lpad ], [ %.pn, %ehcleanup ], [ %.pn, %_ZNKSt14default_deleteIA_dEclIdEENSt9enable_ifIXsr14is_convertibleIPA_T_PS0_EE5valueEvE4typeEPS4_.exit.i.i15 ]
  call void @llvm.lifetime.end.p0(i64 24, ptr nonnull %ref.tmp3) #27
  call void @llvm.lifetime.end.p0(i64 16, ptr nonnull %ref.tmp2) #27
  %11 = load ptr, ptr %ref.tmp, align 8, !tbaa !3
  %cmp.not.i.i17 = icmp eq ptr %11, null
  br i1 %cmp.not.i.i17, label %_ZN8QuantLib5ArrayD2Ev.exit19, label %_ZNKSt14default_deleteIA_dEclIdEENSt9enable_ifIXsr14is_convertibleIPA_T_PS0_EE5valueEvE4typeEPS4_.exit.i.i18

_ZNKSt14default_deleteIA_dEclIdEENSt9enable_ifIXsr14is_convertibleIPA_T_PS0_EE5valueEvE4typeEPS4_.exit.i.i18: ; preds = %ehcleanup12
  call void @_ZdaPv(ptr noundef nonnull %11) #29
  br label %_ZN8QuantLib5ArrayD2Ev.exit19

_ZN8QuantLib5ArrayD2Ev.exit19:                    ; preds = %ehcleanup12, %_ZNKSt14default_deleteIA_dEclIdEENSt9enable_ifIXsr14is_convertibleIPA_T_PS0_EE5valueEvE4typeEPS4_.exit.i.i18
  call void @llvm.lifetime.end.p0(i64 16, ptr nonnull %ref.tmp) #27
  resume { ptr, i32 } %.pn.pn
}